; Function Attrs: mustprogress nounwind uwtable
define dso_local void @_ZN5clang28EmitClangOpenCLBuiltinHeaderERN4llvm12RecordKeeperERNS0_11raw_ostreamE(ptr noundef nonnull align 8 dereferenceable(232) %0, ptr noundef nonnull align 8 dereferenceable(48) %1) local_unnamed_addr #0 {
  %3 = alloca %"class.(anonymous namespace)::OpenCLBuiltinHeaderEmitter", align 8
  %4 = getelementptr inbounds nuw i8, ptr %3, i64 8
  %5 = getelementptr inbounds i8, ptr %3, i64 28
  call void @llvm.memset.p0.i64(ptr noundef nonnull align 8 dereferenceable(20) %4, i8 0, i64 20, i1 false)
  store i32 24, ptr %5, align 4
  %6 = getelementptr inbounds nuw i8, ptr %3, i64 32
  store ptr %0, ptr %6, align 8
  %7 = getelementptr inbounds nuw i8, ptr %3, i64 40
  store ptr %1, ptr %7, align 8
  store ptr getelementptr inbounds inrange(-16, 24) (i8, ptr @_ZTVN12_GLOBAL__N_126OpenCLBuiltinHeaderEmitterE, i64 16), ptr %3, align 8
  call void @_ZN12_GLOBAL__N_126OpenCLBuiltinHeaderEmitter4emitEv(ptr noundef nonnull align 8 dereferenceable(48) %3)
  store ptr getelementptr inbounds inrange(-16, 24) (i8, ptr @_ZTVN12_GLOBAL__N_128OpenCLBuiltinFileEmitterBaseE, i64 16), ptr %3, align 8
  %8 = getelementptr inbounds i8, ptr %3, i64 20
  %9 = load i32, ptr %8, align 4
  %10 = icmp eq i32 %9, 0
  br i1 %10, label %_ZN12_GLOBAL__N_126OpenCLBuiltinHeaderEmitterD2Ev.exit, label %11

11:                                               ; preds = %2
  %12 = getelementptr inbounds i8, ptr %3, i64 16
  %13 = load i32, ptr %12, align 8
  %.not10.i.i.i = icmp eq i32 %13, 0
  br i1 %.not10.i.i.i, label %_ZN12_GLOBAL__N_126OpenCLBuiltinHeaderEmitterD2Ev.exit, label %.lr.ph.preheader.i.i.i

.lr.ph.preheader.i.i.i:                           ; preds = %11
  %14 = zext i32 %13 to i64
  br label %.lr.ph.i.i.i

.lr.ph.i.i.i:                                     ; preds = %21, %.lr.ph.preheader.i.i.i
  %indvars.iv.i.i.i = phi i64 [ 0, %.lr.ph.preheader.i.i.i ], [ %indvars.iv.next.i.i.i, %21 ]
  %15 = load ptr, ptr %4, align 8
  %16 = getelementptr inbounds ptr, ptr %15, i64 %indvars.iv.i.i.i
  %17 = load ptr, ptr %16, align 8
  %magicptr.i.i.i = ptrtoint ptr %17 to i64
  switch i64 %magicptr.i.i.i, label %18 [
    i64 0, label %21
    i64 -8, label %21
  ]

18:                                               ; preds = %.lr.ph.i.i.i
  %19 = load i64, ptr %17, align 8
  %20 = add i64 %19, 25
  call void @_ZN4llvm17deallocate_bufferEPvmm(ptr noundef nonnull %17, i64 noundef %20, i64 noundef 8) #20
  br label %21

21:                                               ; preds = %18, %.lr.ph.i.i.i, %.lr.ph.i.i.i
  %indvars.iv.next.i.i.i = add nuw nsw i64 %indvars.iv.i.i.i, 1
  %.not.i.i.i = icmp eq i64 %indvars.iv.next.i.i.i, %14
  br i1 %.not.i.i.i, label %_ZN12_GLOBAL__N_126OpenCLBuiltinHeaderEmitterD2Ev.exit, label %.lr.ph.i.i.i, !llvm.loop !41

_ZN12_GLOBAL__N_126OpenCLBuiltinHeaderEmitterD2Ev.exit: ; preds = %21, %2, %11
  %22 = load ptr, ptr %4, align 8
  call void @free(ptr noundef %22) #20
  ret void
}